; Function Attrs: mustprogress nounwind uwtable
define dso_local void @_ZNK5clang6interp10Descriptor4dumpEv(ptr noundef nonnull align 8 dereferenceable(80) %0) local_unnamed_addr #0 align 2 {
  %2 = tail call noundef nonnull align 8 dereferenceable(96) ptr @_ZN4llvm4errsEv() #15
  tail call void @_ZNK5clang6interp10Descriptor4dumpERN4llvm11raw_ostreamE(ptr noundef nonnull align 8 dereferenceable(80) %0, ptr noundef nonnull align 8 dereferenceable(48) %2)
  %3 = tail call noundef nonnull align 8 dereferenceable(96) ptr @_ZN4llvm4errsEv() #15
  %4 = getelementptr inbounds nuw i8, ptr %3, i64 32
  %5 = load ptr, ptr %4, align 8
  %6 = getelementptr inbounds nuw i8, ptr %3, i64 24
  %7 = load ptr, ptr %6, align 8
  %.not.i = icmp ult ptr %5, %7
  br i1 %.not.i, label %10, label %8

8:                                                ; preds = %1
  %9 = tail call noundef nonnull align 8 dereferenceable(48) ptr @_ZN4llvm11raw_ostream5writeEh(ptr noundef nonnull align 8 dereferenceable(48) %3, i8 noundef zeroext 10) #15
  br label %_ZN4llvm11raw_ostreamlsEc.exit

10:                                               ; preds = %1
  %11 = getelementptr inbounds nuw i8, ptr %5, i64 1
  store ptr %11, ptr %4, align 8
  store i8 10, ptr %5, align 1
  br label %_ZN4llvm11raw_ostreamlsEc.exit

_ZN4llvm11raw_ostreamlsEc.exit:                   ; preds = %8, %10
  ret void
}